target datalayout = "e-m:e-p270:32:32-p271:32:32-p272:64:64-i64:64-i128:128-f80:128-n8:16:32:64-S128"
target triple = "x86_64-pc-linux-gnu"

%struct.job_info = type { ptr, i64, ptr, ptr, i32, ptr, i32, i32, i32, ptr, i32, ptr, i16, ptr, i64, i16, ptr, ptr, ptr, ptr, ptr, ptr, ptr, ptr, i16, i16, i16, double, i16, i32, i32, i32, ptr, ptr, i64, i32, ptr, i32, i64, i64, ptr, ptr, i32, ptr, ptr, ptr, ptr, i64, ptr, i64, ptr, i32, ptr, ptr, i32, i32, ptr, i32, i32, ptr, ptr, i32, i64, ptr, i16, ptr, i32, i32, ptr, ptr, ptr, ptr, ptr, i32, ptr, i16, i16, i16, i16, i16, i32, i32, i32, i16, ptr, ptr, i64, i16, i32, i64, i64, i64, i32, ptr, ptr, i32, ptr, i8, ptr, ptr, i32, i16, i64, i16, ptr, ptr, ptr, ptr, i16, i32, i16, i16, i64, i16, ptr, i32, ptr, ptr, ptr, i16, i64, i64, ptr, i32, i32, i16, ptr, ptr, ptr, ptr, ptr, ptr, ptr, ptr, i32, ptr, i32, ptr, ptr }
%struct.squeue_job_rec = type { i32, ptr, ptr, i32 }

@reverse_order = internal global i8 0, align 1
@.str.5 = private unnamed_addr constant [1 x i8] zeroinitializer, align 1

; Function Attrs: nounwind uwtable
define internal void @_get_job_info_from_void(ptr noundef %0, ptr noundef %1, ptr noundef %2, ptr noundef %3) #0 {
  %5 = alloca ptr, align 8
  %6 = alloca ptr, align 8
  %7 = alloca ptr, align 8
  %8 = alloca ptr, align 8
  store ptr %0, ptr %5, align 8
  store ptr %1, ptr %6, align 8
  store ptr %2, ptr %7, align 8
  store ptr %3, ptr %8, align 8
  %9 = load ptr, ptr %7, align 8
  %10 = load ptr, ptr %9, align 8
  %11 = getelementptr inbounds nuw %struct.squeue_job_rec, ptr %10, i32 0, i32 1
  %12 = load ptr, ptr %11, align 8
  %13 = load ptr, ptr %5, align 8
  store ptr %12, ptr %13, align 8
  %14 = load ptr, ptr %8, align 8
  %15 = load ptr, ptr %14, align 8
  %16 = getelementptr inbounds nuw %struct.squeue_job_rec, ptr %15, i32 0, i32 1
  %17 = load ptr, ptr %16, align 8
  %18 = load ptr, ptr %6, align 8
  store ptr %17, ptr %18, align 8
  ret void
}

; Function Attrs: nounwind uwtable
define internal i32 @_sort_job_by_name(ptr noundef %0, ptr noundef %1) #0 {
  %3 = alloca ptr, align 8
  %4 = alloca ptr, align 8
  %5 = alloca i32, align 4
  %6 = alloca ptr, align 8
  %7 = alloca ptr, align 8
  %8 = alloca ptr, align 8
  %9 = alloca ptr, align 8
  store ptr %0, ptr %3, align 8
  store ptr %1, ptr %4, align 8
  call void @llvm.lifetime.start.p0(i64 4, ptr %5) #8
  call void @llvm.lifetime.start.p0(i64 8, ptr %6) #8
  call void @llvm.lifetime.start.p0(i64 8, ptr %7) #8
  call void @llvm.lifetime.start.p0(i64 8, ptr %8) #8
  store ptr @.str.5, ptr %8, align 8
  call void @llvm.lifetime.start.p0(i64 8, ptr %9) #8
  store ptr @.str.5, ptr %9, align 8
  %10 = load ptr, ptr %3, align 8
  %11 = load ptr, ptr %4, align 8
  call void @_get_job_info_from_void(ptr noundef %6, ptr noundef %7, ptr noundef %10, ptr noundef %11)
  %12 = load ptr, ptr %6, align 8
  %13 = getelementptr inbounds nuw %struct.job_info, ptr %12, i32 0, i32 70
  %14 = load ptr, ptr %13, align 8
  %15 = icmp ne ptr %14, null
  br i1 %15, label %16, label %20

16:                                               ; preds = %2
  %17 = load ptr, ptr %6, align 8
  %18 = getelementptr inbounds nuw %struct.job_info, ptr %17, i32 0, i32 70
  %19 = load ptr, ptr %18, align 8
  store ptr %19, ptr %8, align 8
  br label %20

20:                                               ; preds = %16, %2
  %21 = load ptr, ptr %7, align 8
  %22 = getelementptr inbounds nuw %struct.job_info, ptr %21, i32 0, i32 70
  %23 = load ptr, ptr %22, align 8
  %24 = icmp ne ptr %23, null
  br i1 %24, label %25, label %29

25:                                               ; preds = %20
  %26 = load ptr, ptr %7, align 8
  %27 = getelementptr inbounds nuw %struct.job_info, ptr %26, i32 0, i32 70
  %28 = load ptr, ptr %27, align 8
  store ptr %28, ptr %9, align 8
  br label %29

29:                                               ; preds = %25, %20
  %30 = load ptr, ptr %8, align 8
  %31 = load ptr, ptr %9, align 8
  %32 = call i32 @xstrcmp(ptr noundef %30, ptr noundef %31)
  store i32 %32, ptr %5, align 4
  %33 = load i8, ptr @reverse_order, align 1, !range !11, !noundef !12
  %34 = trunc i8 %33 to i1
  br i1 %34, label %35, label %38

35:                                               ; preds = %29
  %36 = load i32, ptr %5, align 4
  %37 = sub nsw i32 0, %36
  store i32 %37, ptr %5, align 4
  br label %38

38:                                               ; preds = %35, %29
  %39 = load i32, ptr %5, align 4
  call void @llvm.lifetime.end.p0(i64 8, ptr %9) #8
  call void @llvm.lifetime.end.p0(i64 8, ptr %8) #8
  call void @llvm.lifetime.end.p0(i64 8, ptr %7) #8
  call void @llvm.lifetime.end.p0(i64 8, ptr %6) #8
  call void @llvm.lifetime.end.p0(i64 4, ptr %5) #8
  ret i32 %39
}